; Function Attrs: mustprogress uwtable
define void @_ZNK5faiss14IndexBinaryIVF23reconstruct_from_offsetEllPh(ptr nocapture noundef nonnull readonly align 8 dereferenceable(232) %0, i64 noundef %1, i64 noundef %2, ptr nocapture noundef writeonly %3) unnamed_addr #1 align 2 {
  %5 = getelementptr inbounds i8, ptr %0, i64 32
  %6 = load ptr, ptr %5, align 8
  %7 = load ptr, ptr %6, align 8
  %8 = getelementptr inbounds i8, ptr %7, i64 72
  %9 = load ptr, ptr %8, align 8
  %10 = tail call noundef ptr %9(ptr noundef nonnull align 8 dereferenceable(25) %6, i64 noundef %1, i64 noundef %2)
  %11 = getelementptr inbounds i8, ptr %0, i64 12
  %12 = load i32, ptr %11, align 4
  %13 = sext i32 %12 to i64
  tail call void @llvm.memcpy.p0.p0.i64(ptr align 1 %3, ptr align 1 %10, i64 %13, i1 false)
  ret void
}